target datalayout = "e-m:e-p270:32:32-p271:32:32-p272:64:64-i64:64-i128:128-f80:128-n8:16:32:64-S128"
target triple = "x86_64-pc-linux-gnu"

%struct.bio_st = type { ptr, ptr, ptr, i32, i32, i32, i32, i32, i32, ptr, ptr, i64, i64 }

@.str = private unnamed_addr constant [120 x i8] c"generated/home/dtcxzyw/WorkSpace/Projects/compilers/llvm-opt-benchmark/bench/libquic/libquic/boringssl/crypto/bio/bio.c\00", align 1

; Function Attrs: nounwind uwtable
define internal i32 @bio_io(ptr noundef %0, ptr noundef %1, i32 noundef %2, i64 noundef %3, i32 noundef %4, ptr noundef %5) #0 {
  %7 = alloca i32, align 4
  %8 = alloca ptr, align 8
  %9 = alloca ptr, align 8
  %10 = alloca i32, align 4
  %11 = alloca i64, align 8
  %12 = alloca i32, align 4
  %13 = alloca ptr, align 8
  %14 = alloca i32, align 4
  %15 = alloca ptr, align 8
  %16 = alloca i32, align 4
  store ptr %0, ptr %8, align 8, !tbaa !11
  store ptr %1, ptr %9, align 8, !tbaa !28
  store i32 %2, ptr %10, align 4, !tbaa !23
  store i64 %3, ptr %11, align 8, !tbaa !29
  store i32 %4, ptr %12, align 4, !tbaa !23
  store ptr %5, ptr %13, align 8, !tbaa !30
  call void @llvm.lifetime.start.p0(i64 4, ptr %14) #9
  call void @llvm.lifetime.start.p0(i64 8, ptr %15) #9
  store ptr null, ptr %15, align 8, !tbaa !28
  %17 = load ptr, ptr %8, align 8, !tbaa !11
  %18 = icmp ne ptr %17, null
  br i1 %18, label %19, label %31

19:                                               ; preds = %6
  %20 = load ptr, ptr %8, align 8, !tbaa !11
  %21 = getelementptr inbounds nuw %struct.bio_st, ptr %20, i32 0, i32 0
  %22 = load ptr, ptr %21, align 8, !tbaa !13
  %23 = icmp ne ptr %22, null
  br i1 %23, label %24, label %31

24:                                               ; preds = %19
  %25 = load ptr, ptr %8, align 8, !tbaa !11
  %26 = getelementptr inbounds nuw %struct.bio_st, ptr %25, i32 0, i32 0
  %27 = load ptr, ptr %26, align 8, !tbaa !13
  %28 = load i64, ptr %11, align 8, !tbaa !29
  %29 = getelementptr inbounds nuw i8, ptr %27, i64 %28
  %30 = load ptr, ptr %29, align 8, !tbaa !28
  store ptr %30, ptr %15, align 8, !tbaa !28
  br label %31

31:                                               ; preds = %24, %19, %6
  %32 = load ptr, ptr %15, align 8, !tbaa !28
  %33 = icmp eq ptr %32, null
  br i1 %33, label %34, label %35

34:                                               ; preds = %31
  call void @ERR_put_error(i32 noundef 17, i32 noundef 0, i32 noundef 115, ptr noundef @.str, i32 noundef 156)
  store i32 -2, ptr %7, align 4
  store i32 1, ptr %16, align 4
  br label %102

35:                                               ; preds = %31
  %36 = load ptr, ptr %8, align 8, !tbaa !11
  %37 = getelementptr inbounds nuw %struct.bio_st, ptr %36, i32 0, i32 1
  %38 = load ptr, ptr %37, align 8, !tbaa !22
  %39 = icmp ne ptr %38, null
  br i1 %39, label %40, label %55

40:                                               ; preds = %35
  %41 = load ptr, ptr %8, align 8, !tbaa !11
  %42 = getelementptr inbounds nuw %struct.bio_st, ptr %41, i32 0, i32 1
  %43 = load ptr, ptr %42, align 8, !tbaa !22
  %44 = load ptr, ptr %8, align 8, !tbaa !11
  %45 = load i32, ptr %12, align 4, !tbaa !23
  %46 = load ptr, ptr %9, align 8, !tbaa !28
  %47 = load i32, ptr %10, align 4, !tbaa !23
  %48 = call i64 %43(ptr noundef %44, i32 noundef %45, ptr noundef %46, i32 noundef %47, i64 noundef 0, i64 noundef 1)
  %49 = trunc i64 %48 to i32
  store i32 %49, ptr %14, align 4, !tbaa !23
  %50 = load i32, ptr %14, align 4, !tbaa !23
  %51 = icmp sle i32 %50, 0
  br i1 %51, label %52, label %54

52:                                               ; preds = %40
  %53 = load i32, ptr %14, align 4, !tbaa !23
  store i32 %53, ptr %7, align 4
  store i32 1, ptr %16, align 4
  br label %102

54:                                               ; preds = %40
  br label %55

55:                                               ; preds = %54, %35
  %56 = load ptr, ptr %8, align 8, !tbaa !11
  %57 = getelementptr inbounds nuw %struct.bio_st, ptr %56, i32 0, i32 3
  %58 = load i32, ptr %57, align 8, !tbaa !32
  %59 = icmp ne i32 %58, 0
  br i1 %59, label %61, label %60

60:                                               ; preds = %55
  call void @ERR_put_error(i32 noundef 17, i32 noundef 0, i32 noundef 114, ptr noundef @.str, i32 noundef 168)
  store i32 -2, ptr %7, align 4
  store i32 1, ptr %16, align 4
  br label %102

61:                                               ; preds = %55
  store i32 0, ptr %14, align 4, !tbaa !23
  %62 = load ptr, ptr %9, align 8, !tbaa !28
  %63 = icmp ne ptr %62, null
  br i1 %63, label %64, label %73

64:                                               ; preds = %61
  %65 = load i32, ptr %10, align 4, !tbaa !23
  %66 = icmp sgt i32 %65, 0
  br i1 %66, label %67, label %73

67:                                               ; preds = %64
  %68 = load ptr, ptr %15, align 8, !tbaa !28
  %69 = load ptr, ptr %8, align 8, !tbaa !11
  %70 = load ptr, ptr %9, align 8, !tbaa !28
  %71 = load i32, ptr %10, align 4, !tbaa !23
  %72 = call i32 %68(ptr noundef %69, ptr noundef %70, i32 noundef %71)
  store i32 %72, ptr %14, align 4, !tbaa !23
  br label %73

73:                                               ; preds = %67, %64, %61
  %74 = load i32, ptr %14, align 4, !tbaa !23
  %75 = icmp sgt i32 %74, 0
  br i1 %75, label %76, label %82

76:                                               ; preds = %73
  %77 = load i32, ptr %14, align 4, !tbaa !23
  %78 = sext i32 %77 to i64
  %79 = load ptr, ptr %13, align 8, !tbaa !30
  %80 = load i64, ptr %79, align 8, !tbaa !29
  %81 = add i64 %80, %78
  store i64 %81, ptr %79, align 8, !tbaa !29
  br label %82

82:                                               ; preds = %76, %73
  %83 = load ptr, ptr %8, align 8, !tbaa !11
  %84 = getelementptr inbounds nuw %struct.bio_st, ptr %83, i32 0, i32 1
  %85 = load ptr, ptr %84, align 8, !tbaa !22
  %86 = icmp ne ptr %85, null
  br i1 %86, label %87, label %100

87:                                               ; preds = %82
  %88 = load ptr, ptr %8, align 8, !tbaa !11
  %89 = getelementptr inbounds nuw %struct.bio_st, ptr %88, i32 0, i32 1
  %90 = load ptr, ptr %89, align 8, !tbaa !22
  %91 = load ptr, ptr %8, align 8, !tbaa !11
  %92 = load i32, ptr %12, align 4, !tbaa !23
  %93 = or i32 %92, 128
  %94 = load ptr, ptr %9, align 8, !tbaa !28
  %95 = load i32, ptr %10, align 4, !tbaa !23
  %96 = load i32, ptr %14, align 4, !tbaa !23
  %97 = sext i32 %96 to i64
  %98 = call i64 %90(ptr noundef %91, i32 noundef %93, ptr noundef %94, i32 noundef %95, i64 noundef 0, i64 noundef %97)
  %99 = trunc i64 %98 to i32
  store i32 %99, ptr %14, align 4, !tbaa !23
  br label %100

100:                                              ; preds = %87, %82
  %101 = load i32, ptr %14, align 4, !tbaa !23
  store i32 %101, ptr %7, align 4
  store i32 1, ptr %16, align 4
  br label %102

102:                                              ; preds = %100, %60, %52, %34
  call void @llvm.lifetime.end.p0(i64 8, ptr %15) #9
  call void @llvm.lifetime.end.p0(i64 4, ptr %14) #9
  %103 = load i32, ptr %7, align 4
  ret i32 %103
}