; Function Attrs: nounwind uwtable
define internal fastcc i32 @bio_io(ptr noundef %0, ptr noundef %1, i32 noundef %2, i64 noundef range(i64 16, 41) %3, i32 noundef range(i32 2, 6) %4, ptr noundef captures(none) %5) unnamed_addr #0 {
  %.not = icmp eq ptr %0, null
  br i1 %.not, label %.thread, label %7

7:                                                ; preds = %6
  %8 = load ptr, ptr %0, align 8, !tbaa !6
  %.not41 = icmp eq ptr %8, null
  br i1 %.not41, label %.thread, label %9

9:                                                ; preds = %7
  %10 = getelementptr inbounds nuw i8, ptr %8, i64 %3
  %11 = load ptr, ptr %10, align 8, !tbaa !25
  %12 = icmp eq ptr %11, null
  br i1 %12, label %.thread, label %13

.thread:                                          ; preds = %6, %7, %9
  tail call void @ERR_put_error(i32 noundef 17, i32 noundef 0, i32 noundef 115, ptr noundef nonnull @.str, i32 noundef 156) #18
  br label %40

13:                                               ; preds = %9
  %14 = getelementptr inbounds nuw i8, ptr %0, i64 8
  %15 = load ptr, ptr %14, align 8, !tbaa !20
  %.not42 = icmp eq ptr %15, null
  br i1 %.not42, label %20, label %16

16:                                               ; preds = %13
  %17 = tail call i64 %15(ptr noundef nonnull %0, i32 noundef %4, ptr noundef %1, i32 noundef %2, i64 noundef 0, i64 noundef 1) #18
  %18 = trunc i64 %17 to i32
  %19 = icmp slt i32 %18, 1
  br i1 %19, label %40, label %20

20:                                               ; preds = %16, %13
  %21 = getelementptr inbounds nuw i8, ptr %0, i64 24
  %22 = load i32, ptr %21, align 8, !tbaa !26
  %.not43 = icmp eq i32 %22, 0
  br i1 %.not43, label %23, label %24

23:                                               ; preds = %20
  tail call void @ERR_put_error(i32 noundef 17, i32 noundef 0, i32 noundef 114, ptr noundef nonnull @.str, i32 noundef 168) #18
  br label %40

24:                                               ; preds = %20
  %25 = icmp ne ptr %1, null
  %26 = icmp sgt i32 %2, 0
  %or.cond = and i1 %25, %26
  br i1 %or.cond, label %27, label %.thread46

27:                                               ; preds = %24
  %28 = tail call i32 %11(ptr noundef nonnull %0, ptr noundef nonnull %1, i32 noundef %2) #18
  %29 = icmp sgt i32 %28, 0
  br i1 %29, label %30, label %.thread46

30:                                               ; preds = %27
  %31 = zext nneg i32 %28 to i64
  %32 = load i64, ptr %5, align 8, !tbaa !27
  %33 = add i64 %32, %31
  store i64 %33, ptr %5, align 8, !tbaa !27
  br label %.thread46

.thread46:                                        ; preds = %24, %30, %27
  %.03248 = phi i32 [ %28, %30 ], [ %28, %27 ], [ 0, %24 ]
  %34 = load ptr, ptr %14, align 8, !tbaa !20
  %.not44 = icmp eq ptr %34, null
  br i1 %.not44, label %40, label %35

35:                                               ; preds = %.thread46
  %36 = or disjoint i32 %4, 128
  %37 = sext i32 %.03248 to i64
  %38 = tail call i64 %34(ptr noundef nonnull %0, i32 noundef %36, ptr noundef %1, i32 noundef %2, i64 noundef 0, i64 noundef %37) #18
  %39 = trunc i64 %38 to i32
  br label %40

40:                                               ; preds = %.thread46, %35, %16, %23, %.thread
  %.033 = phi i32 [ -2, %.thread ], [ -2, %23 ], [ %18, %16 ], [ %39, %35 ], [ %.03248, %.thread46 ]
  ret i32 %.033
}